; Function Attrs: mustprogress nounwind uwtable
define hidden noundef zeroext i1 @_ZN14LibraryCallKit34inline_intpoly_montgomeryMult_P256Ev(ptr noundef nonnull align 8 dereferenceable(108) %0) local_unnamed_addr #0 align 2 {
  %2 = load ptr, ptr @_ZN12StubRoutines28_intpoly_montgomeryMult_P256E, align 8
  %.not = icmp ne ptr %2, null
  br i1 %.not, label %3, label %74

3:                                                ; preds = %1
  %4 = getelementptr inbounds i8, ptr %0, i64 40
  %5 = load ptr, ptr %4, align 8
  %6 = getelementptr inbounds i8, ptr %5, i64 56
  %7 = load ptr, ptr %6, align 8
  %8 = getelementptr inbounds i8, ptr %7, i64 16
  %9 = load i32, ptr %8, align 8
  %10 = getelementptr inbounds i8, ptr %7, i64 32
  %11 = load i32, ptr %10, align 8
  %12 = add i32 %11, %9
  %13 = getelementptr inbounds i8, ptr %5, i64 8
  %14 = load ptr, ptr %13, align 8
  %15 = zext i32 %12 to i64
  %16 = getelementptr inbounds ptr, ptr %14, i64 %15
  %17 = load ptr, ptr %16, align 8
  %18 = getelementptr inbounds i8, ptr %0, i64 32
  %19 = load ptr, ptr %18, align 8
  %20 = getelementptr inbounds i8, ptr %19, i64 40
  %21 = load ptr, ptr %20, align 8
  %22 = getelementptr inbounds i8, ptr %17, i64 40
  %23 = load i32, ptr %22, align 8
  %24 = getelementptr inbounds i8, ptr %21, i64 16
  %25 = load ptr, ptr %24, align 8
  %26 = zext i32 %23 to i64
  %27 = getelementptr inbounds ptr, ptr %25, i64 %26
  %28 = load ptr, ptr %27, align 8
  %29 = load ptr, ptr %28, align 8
  %30 = getelementptr inbounds i8, ptr %29, i64 112
  %31 = load ptr, ptr %30, align 8
  %32 = tail call noundef zeroext i1 %31(ptr noundef nonnull align 8 dereferenceable(20) %28) #13
  %33 = xor i1 %32, true
  %34 = tail call noundef ptr @_ZN8GraphKit17null_check_commonEP4Node9BasicTypebPS1_b(ptr noundef nonnull align 8 dereferenceable(84) %0, ptr noundef %17, i8 noundef zeroext 12, i1 noundef zeroext false, ptr noundef null, i1 noundef zeroext %33) #13
  %35 = tail call noundef zeroext i1 @_ZN8GraphKit7stoppedEv(ptr noundef nonnull align 8 dereferenceable(84) %0) #13
  br i1 %35, label %74, label %36

36:                                               ; preds = %3
  %37 = load ptr, ptr %4, align 8
  %38 = getelementptr inbounds i8, ptr %37, i64 56
  %39 = load ptr, ptr %38, align 8
  %40 = getelementptr inbounds i8, ptr %39, i64 16
  %41 = load i32, ptr %40, align 8
  %42 = getelementptr inbounds i8, ptr %39, i64 32
  %43 = load i32, ptr %42, align 8
  %44 = add i32 %43, %41
  %45 = add i32 %44, 1
  %46 = getelementptr inbounds i8, ptr %37, i64 8
  %47 = load ptr, ptr %46, align 8
  %48 = zext i32 %45 to i64
  %49 = getelementptr inbounds ptr, ptr %47, i64 %48
  %50 = load ptr, ptr %49, align 8
  %51 = add i32 %44, 2
  %52 = zext i32 %51 to i64
  %53 = getelementptr inbounds ptr, ptr %47, i64 %52
  %54 = load ptr, ptr %53, align 8
  %55 = add i32 %44, 3
  %56 = zext i32 %55 to i64
  %57 = getelementptr inbounds ptr, ptr %47, i64 %56
  %58 = load ptr, ptr %57, align 8
  %59 = tail call noundef ptr @_ZN8GraphKit16must_be_not_nullEP4Nodeb(ptr noundef nonnull align 8 dereferenceable(84) %0, ptr noundef %50, i1 noundef zeroext true) #13
  %60 = tail call noundef ptr @_ZN8GraphKit16must_be_not_nullEP4Nodeb(ptr noundef nonnull align 8 dereferenceable(84) %0, ptr noundef %54, i1 noundef zeroext true) #13
  %61 = tail call noundef ptr @_ZN8GraphKit16must_be_not_nullEP4Nodeb(ptr noundef nonnull align 8 dereferenceable(84) %0, ptr noundef %58, i1 noundef zeroext true) #13
  %62 = load ptr, ptr %18, align 8
  %63 = tail call noundef ptr @_ZN11PhaseValues6intconEi(ptr noundef nonnull align 8 dereferenceable(2400) %62, i32 noundef 0) #13
  %64 = tail call noundef ptr @_ZN8GraphKit21array_element_addressEP4NodeS1_9BasicTypePK7TypeIntS1_(ptr noundef nonnull align 8 dereferenceable(84) %0, ptr noundef %59, ptr noundef %63, i8 noundef zeroext 11, ptr noundef null, ptr noundef null) #13
  %65 = load ptr, ptr %18, align 8
  %66 = tail call noundef ptr @_ZN11PhaseValues6intconEi(ptr noundef nonnull align 8 dereferenceable(2400) %65, i32 noundef 0) #13
  %67 = tail call noundef ptr @_ZN8GraphKit21array_element_addressEP4NodeS1_9BasicTypePK7TypeIntS1_(ptr noundef nonnull align 8 dereferenceable(84) %0, ptr noundef %60, ptr noundef %66, i8 noundef zeroext 11, ptr noundef null, ptr noundef null) #13
  %68 = load ptr, ptr %18, align 8
  %69 = tail call noundef ptr @_ZN11PhaseValues6intconEi(ptr noundef nonnull align 8 dereferenceable(2400) %68, i32 noundef 0) #13
  %70 = tail call noundef ptr @_ZN8GraphKit21array_element_addressEP4NodeS1_9BasicTypePK7TypeIntS1_(ptr noundef nonnull align 8 dereferenceable(84) %0, ptr noundef %61, ptr noundef %69, i8 noundef zeroext 11, ptr noundef null, ptr noundef null) #13
  %71 = tail call noundef ptr @_ZN11OptoRuntime32intpoly_montgomeryMult_P256_TypeEv() #13
  %72 = load ptr, ptr @_ZN7TypePtr6BOTTOME, align 8
  %73 = tail call noundef ptr @_ZN8GraphKit17make_runtime_callEiPK8TypeFuncPhPKcPK7TypePtrP4NodeSA_SA_SA_SA_SA_SA_SA_(ptr noundef nonnull align 8 dereferenceable(84) %0, i32 noundef 1, ptr noundef %71, ptr noundef nonnull %2, ptr noundef nonnull @.str.105, ptr noundef %72, ptr noundef %64, ptr noundef %67, ptr noundef %70, ptr noundef null, ptr noundef null, ptr noundef null, ptr noundef null, ptr noundef null) #13
  br label %74

74:                                               ; preds = %3, %1, %36
  ret i1 %.not
}